target datalayout = "e-m:e-p270:32:32-p271:32:32-p272:64:64-i64:64-i128:128-f80:128-n8:16:32:64-S128"
target triple = "x86_64-pc-linux-gnu"

%struct.H5C_class_t = type { i32, ptr, i32, i32, ptr, ptr, ptr, ptr, ptr, ptr, ptr, ptr, ptr, ptr }
%struct.H5FS_hdr_cache_ud_t = type { ptr, i16, ptr, ptr, i64 }
%struct.H5FS_t = type { %struct.H5C_cache_entry_t, i64, i64, i64, i64, i32, i16, i32, i32, i32, i64, i64, i64, i64, i32, i64, i64, ptr, i8, i32, i8, i8, i32, i64, i64, i64, ptr }
%struct.H5C_cache_entry_t = type { ptr, i64, i64, ptr, i8, ptr, i8, i8, i8, i8, i32, i8, i8, i8, i8, i8, i32, ptr, i32, i32, i32, i32, i32, i8, i8, ptr, ptr, ptr, ptr, ptr, ptr, i8, i32, i8, i64, ptr, i64, i64, i32, i8, i32, i32, i8, ptr, ptr, ptr }

@H5FS_init_g = external global i8, align 1
@H5_libterm_g = external global i8, align 1
@H5AC_FSPACE_HDR = external constant [1 x %struct.H5C_class_t], align 16
@.str = private unnamed_addr constant [101 x i8] c"generated/home/dtcxzyw/WorkSpace/Projects/compilers/llvm-opt-benchmark/bench/hdf5/hdf5/src/H5FSdbg.c\00", align 1
@H5E_FSPACE_g = external global i64, align 8
@H5E_CANTLOAD_g = external global i64, align 8
@.str.1 = private unnamed_addr constant [33 x i8] c"unable to load free space header\00", align 1
@.str.3 = private unnamed_addr constant [1 x i8] zeroinitializer, align 1
@H5E_PROTECT_g = external global i64, align 8
@.str.24 = private unnamed_addr constant [36 x i8] c"unable to release free space header\00", align 1
@__func__.H5FS_sects_debug = private unnamed_addr constant [17 x i8] c"H5FS_sects_debug\00", align 1
@.str.26 = private unnamed_addr constant [27 x i8] c"%*sFree Space Sections...\0A\00", align 1
@H5E_SYSTEM_g = external global i64, align 8
@.str.27 = private unnamed_addr constant [48 x i8] c"unable to dump fractal heap free space sections\00", align 1
@.str.28 = private unnamed_addr constant [40 x i8] c"unable to dump file free space sections\00", align 1
@.str.29 = private unnamed_addr constant [17 x i8] c"Unknown client!\0A\00", align 1

; Function Attrs: nounwind uwtable
define i32 @H5FS_sects_debug(ptr noundef %0, i64 noundef %1, ptr noundef %2, i32 noundef %3, i32 noundef %4, i64 noundef %5, i64 noundef %6) #0 {
  %8 = alloca ptr, align 8
  %9 = alloca i64, align 8
  %10 = alloca ptr, align 8
  %11 = alloca i32, align 4
  %12 = alloca i32, align 4
  %13 = alloca i64, align 8
  %14 = alloca i64, align 8
  %15 = alloca ptr, align 8
  %16 = alloca i32, align 4
  %17 = alloca %struct.H5FS_hdr_cache_ud_t, align 8
  %18 = alloca i32, align 4
  %19 = alloca i8, align 1
  store ptr %0, ptr %8, align 8, !tbaa !3
  store i64 %1, ptr %9, align 8, !tbaa !8
  store ptr %2, ptr %10, align 8, !tbaa !10
  store i32 %3, ptr %11, align 4, !tbaa !12
  store i32 %4, ptr %12, align 4, !tbaa !12
  store i64 %5, ptr %13, align 8, !tbaa !8
  store i64 %6, ptr %14, align 8, !tbaa !8
  call void @llvm.lifetime.start.p0(i64 8, ptr %15) #5
  store ptr null, ptr %15, align 8, !tbaa !14
  call void @llvm.lifetime.start.p0(i64 4, ptr %16) #5
  call void @llvm.lifetime.start.p0(i64 40, ptr %17) #5
  call void @llvm.lifetime.start.p0(i64 4, ptr %18) #5
  store i32 0, ptr %18, align 4, !tbaa !12
  call void @llvm.lifetime.start.p0(i64 1, ptr %19) #5
  store i8 0, ptr %19, align 1, !tbaa !16
  %20 = load i8, ptr @H5FS_init_g, align 1, !tbaa !16, !range !18, !noundef !19
  %21 = trunc i8 %20 to i1
  br i1 %21, label %26, label %22

22:                                               ; preds = %7
  %23 = load i8, ptr @H5_libterm_g, align 1, !tbaa !16, !range !18, !noundef !19
  %24 = trunc i8 %23 to i1
  %25 = xor i1 %24, true
  br label %26

26:                                               ; preds = %22, %7
  %27 = phi i1 [ false, %7 ], [ %25, %22 ]
  %28 = xor i1 %27, true
  %29 = xor i1 %28, true
  %30 = zext i1 %29 to i32
  %31 = sext i32 %30 to i64
  %32 = call i64 @llvm.expect.i64(i64 %31, i64 0)
  %33 = icmp ne i64 %32, 0
  br i1 %33, label %34, label %35

34:                                               ; preds = %26
  store i8 1, ptr @H5FS_init_g, align 1, !tbaa !16
  br label %35

35:                                               ; preds = %34, %26
  %36 = load i8, ptr @H5FS_init_g, align 1, !tbaa !16, !range !18, !noundef !19
  %37 = trunc i8 %36 to i1
  br i1 %37, label %42, label %38

38:                                               ; preds = %35
  %39 = load i8, ptr @H5_libterm_g, align 1, !tbaa !16, !range !18, !noundef !19
  %40 = trunc i8 %39 to i1
  %41 = xor i1 %40, true
  br label %42

42:                                               ; preds = %38, %35
  %43 = phi i1 [ true, %35 ], [ %41, %38 ]
  %44 = xor i1 %43, true
  %45 = xor i1 %44, true
  %46 = zext i1 %45 to i32
  %47 = sext i32 %46 to i64
  %48 = call i64 @llvm.expect.i64(i64 %47, i64 1)
  %49 = icmp ne i64 %48, 0
  br i1 %49, label %50, label %216

50:                                               ; preds = %42
  %51 = load ptr, ptr %8, align 8, !tbaa !3
  %52 = getelementptr inbounds nuw %struct.H5FS_hdr_cache_ud_t, ptr %17, i32 0, i32 0
  store ptr %51, ptr %52, align 8, !tbaa !20
  %53 = getelementptr inbounds nuw %struct.H5FS_hdr_cache_ud_t, ptr %17, i32 0, i32 1
  store i16 0, ptr %53, align 8, !tbaa !24
  %54 = getelementptr inbounds nuw %struct.H5FS_hdr_cache_ud_t, ptr %17, i32 0, i32 2
  store ptr null, ptr %54, align 8, !tbaa !25
  %55 = getelementptr inbounds nuw %struct.H5FS_hdr_cache_ud_t, ptr %17, i32 0, i32 3
  store ptr null, ptr %55, align 8, !tbaa !26
  %56 = load i64, ptr %13, align 8, !tbaa !8
  %57 = getelementptr inbounds nuw %struct.H5FS_hdr_cache_ud_t, ptr %17, i32 0, i32 4
  store i64 %56, ptr %57, align 8, !tbaa !27
  %58 = load ptr, ptr %8, align 8, !tbaa !3
  %59 = load i64, ptr %13, align 8, !tbaa !8
  %60 = call ptr @H5AC_protect(ptr noundef %58, ptr noundef @H5AC_FSPACE_HDR, i64 noundef %59, ptr noundef %17, i32 noundef 128)
  store ptr %60, ptr %15, align 8, !tbaa !14
  %61 = icmp eq ptr null, %60
  br i1 %61, label %62, label %81

62:                                               ; preds = %50
  br label %63

63:                                               ; preds = %62
  br label %64

64:                                               ; preds = %63
  br label %65

65:                                               ; preds = %64
  %66 = load i64, ptr @H5E_FSPACE_g, align 8, !tbaa !8
  %67 = load i64, ptr @H5E_CANTLOAD_g, align 8, !tbaa !8
  %68 = call i32 (ptr, ptr, i32, i64, i64, ptr, ...) @H5E_printf_stack(ptr noundef @.str, ptr noundef @__func__.H5FS_sects_debug, i32 noundef 225, i64 noundef %66, i64 noundef %67, ptr noundef @.str.1)
  br label %69

69:                                               ; preds = %65
  br label %70

70:                                               ; preds = %69
  store i8 1, ptr %19, align 1, !tbaa !16
  %71 = load i8, ptr %19, align 1, !tbaa !16, !range !18, !noundef !19
  %72 = trunc i8 %71 to i1
  %73 = zext i1 %72 to i8
  store i8 %73, ptr %19, align 1, !tbaa !16
  br label %74

74:                                               ; preds = %70
  br label %75

75:                                               ; preds = %74
  br label %76

76:                                               ; preds = %75
  store i32 -1, ptr %18, align 4, !tbaa !12
  br label %190

77:                                               ; No predecessors!
  br label %78

78:                                               ; preds = %77
  br label %79

79:                                               ; preds = %78
  br label %80

80:                                               ; preds = %79
  br label %81

81:                                               ; preds = %80, %50
  %82 = load ptr, ptr %15, align 8, !tbaa !14
  %83 = getelementptr inbounds nuw %struct.H5FS_t, ptr %82, i32 0, i32 5
  %84 = load i32, ptr %83, align 8, !tbaa !28
  store i32 %84, ptr %16, align 4, !tbaa !12
  %85 = load ptr, ptr %8, align 8, !tbaa !3
  %86 = load i64, ptr %13, align 8, !tbaa !8
  %87 = load ptr, ptr %15, align 8, !tbaa !14
  %88 = call i32 @H5AC_unprotect(ptr noundef %85, ptr noundef @H5AC_FSPACE_HDR, i64 noundef %86, ptr noundef %87, i32 noundef 1)
  %89 = icmp slt i32 %88, 0
  br i1 %89, label %90, label %106

90:                                               ; preds = %81
  br label %91

91:                                               ; preds = %90
  br label %92

92:                                               ; preds = %91
  br label %93

93:                                               ; preds = %92
  %94 = load i64, ptr @H5E_FSPACE_g, align 8, !tbaa !8
  %95 = load i64, ptr @H5E_PROTECT_g, align 8, !tbaa !8
  %96 = call i32 (ptr, ptr, i32, i64, i64, ptr, ...) @H5E_printf_stack(ptr noundef @.str, ptr noundef @__func__.H5FS_sects_debug, i32 noundef 235, i64 noundef %94, i64 noundef %95, ptr noundef @.str.24)
  br label %97

97:                                               ; preds = %93
  br label %98

98:                                               ; preds = %97
  store i8 1, ptr %19, align 1, !tbaa !16
  %99 = load i8, ptr %19, align 1, !tbaa !16, !range !18, !noundef !19
  %100 = trunc i8 %99 to i1
  %101 = zext i1 %100 to i8
  store i8 %101, ptr %19, align 1, !tbaa !16
  br label %102

102:                                              ; preds = %98
  br label %103

103:                                              ; preds = %102
  store i32 -1, ptr %18, align 4, !tbaa !12
  br label %104

104:                                              ; preds = %103
  br label %105

105:                                              ; preds = %104
  br label %106

106:                                              ; preds = %105, %81
  store ptr null, ptr %15, align 8, !tbaa !14
  %107 = load ptr, ptr %10, align 8, !tbaa !10
  %108 = load i32, ptr %11, align 4, !tbaa !12
  %109 = call i32 (ptr, ptr, ...) @fprintf(ptr noundef %107, ptr noundef @.str.26, i32 noundef %108, ptr noundef @.str.3) #5
  %110 = load i32, ptr %16, align 4, !tbaa !12
  switch i32 %110, label %186 [
    i32 0, label %111
    i32 1, label %148
    i32 2, label %185
  ]

111:                                              ; preds = %106
  %112 = load ptr, ptr %8, align 8, !tbaa !3
  %113 = load i64, ptr %14, align 8, !tbaa !8
  %114 = load ptr, ptr %10, align 8, !tbaa !10
  %115 = load i32, ptr %11, align 4, !tbaa !12
  %116 = add nsw i32 %115, 3
  %117 = load i32, ptr %12, align 4, !tbaa !12
  %118 = sub nsw i32 %117, 3
  %119 = icmp sgt i32 0, %118
  br i1 %119, label %120, label %121

120:                                              ; preds = %111
  br label %124

121:                                              ; preds = %111
  %122 = load i32, ptr %12, align 4, !tbaa !12
  %123 = sub nsw i32 %122, 3
  br label %124

124:                                              ; preds = %121, %120
  %125 = phi i32 [ 0, %120 ], [ %123, %121 ]
  %126 = call i32 @H5HF_sects_debug(ptr noundef %112, i64 noundef %113, ptr noundef %114, i32 noundef %116, i32 noundef %125)
  %127 = icmp slt i32 %126, 0
  br i1 %127, label %128, label %147

128:                                              ; preds = %124
  br label %129

129:                                              ; preds = %128
  br label %130

130:                                              ; preds = %129
  br label %131

131:                                              ; preds = %130
  %132 = load i64, ptr @H5E_FSPACE_g, align 8, !tbaa !8
  %133 = load i64, ptr @H5E_SYSTEM_g, align 8, !tbaa !8
  %134 = call i32 (ptr, ptr, i32, i64, i64, ptr, ...) @H5E_printf_stack(ptr noundef @.str, ptr noundef @__func__.H5FS_sects_debug, i32 noundef 247, i64 noundef %132, i64 noundef %133, ptr noundef @.str.27)
  br label %135

135:                                              ; preds = %131
  br label %136

136:                                              ; preds = %135
  store i8 1, ptr %19, align 1, !tbaa !16
  %137 = load i8, ptr %19, align 1, !tbaa !16, !range !18, !noundef !19
  %138 = trunc i8 %137 to i1
  %139 = zext i1 %138 to i8
  store i8 %139, ptr %19, align 1, !tbaa !16
  br label %140

140:                                              ; preds = %136
  br label %141

141:                                              ; preds = %140
  br label %142

142:                                              ; preds = %141
  store i32 -1, ptr %18, align 4, !tbaa !12
  br label %190

143:                                              ; No predecessors!
  br label %144

144:                                              ; preds = %143
  br label %145

145:                                              ; preds = %144
  br label %146

146:                                              ; preds = %145
  br label %147

147:                                              ; preds = %146, %124
  br label %189

148:                                              ; preds = %106
  %149 = load ptr, ptr %8, align 8, !tbaa !3
  %150 = load i64, ptr %13, align 8, !tbaa !8
  %151 = load ptr, ptr %10, align 8, !tbaa !10
  %152 = load i32, ptr %11, align 4, !tbaa !12
  %153 = add nsw i32 %152, 3
  %154 = load i32, ptr %12, align 4, !tbaa !12
  %155 = sub nsw i32 %154, 3
  %156 = icmp sgt i32 0, %155
  br i1 %156, label %157, label %158

157:                                              ; preds = %148
  br label %161

158:                                              ; preds = %148
  %159 = load i32, ptr %12, align 4, !tbaa !12
  %160 = sub nsw i32 %159, 3
  br label %161

161:                                              ; preds = %158, %157
  %162 = phi i32 [ 0, %157 ], [ %160, %158 ]
  %163 = call i32 @H5MF_sects_debug(ptr noundef %149, i64 noundef %150, ptr noundef %151, i32 noundef %153, i32 noundef %162)
  %164 = icmp slt i32 %163, 0
  br i1 %164, label %165, label %184

165:                                              ; preds = %161
  br label %166

166:                                              ; preds = %165
  br label %167

167:                                              ; preds = %166
  br label %168

168:                                              ; preds = %167
  %169 = load i64, ptr @H5E_FSPACE_g, align 8, !tbaa !8
  %170 = load i64, ptr @H5E_SYSTEM_g, align 8, !tbaa !8
  %171 = call i32 (ptr, ptr, i32, i64, i64, ptr, ...) @H5E_printf_stack(ptr noundef @.str, ptr noundef @__func__.H5FS_sects_debug, i32 noundef 252, i64 noundef %169, i64 noundef %170, ptr noundef @.str.28)
  br label %172

172:                                              ; preds = %168
  br label %173

173:                                              ; preds = %172
  store i8 1, ptr %19, align 1, !tbaa !16
  %174 = load i8, ptr %19, align 1, !tbaa !16, !range !18, !noundef !19
  %175 = trunc i8 %174 to i1
  %176 = zext i1 %175 to i8
  store i8 %176, ptr %19, align 1, !tbaa !16
  br label %177

177:                                              ; preds = %173
  br label %178

178:                                              ; preds = %177
  br label %179

179:                                              ; preds = %178
  store i32 -1, ptr %18, align 4, !tbaa !12
  br label %190

180:                                              ; No predecessors!
  br label %181

181:                                              ; preds = %180
  br label %182

182:                                              ; preds = %181
  br label %183

183:                                              ; preds = %182
  br label %184

184:                                              ; preds = %183, %161
  br label %189

185:                                              ; preds = %106
  br label %186

186:                                              ; preds = %106, %185
  %187 = load ptr, ptr %10, align 8, !tbaa !10
  %188 = call i32 (ptr, ptr, ...) @fprintf(ptr noundef %187, ptr noundef @.str.29) #5
  br label %189

189:                                              ; preds = %186, %184, %147
  br label %190

190:                                              ; preds = %189, %179, %142, %76
  %191 = load ptr, ptr %15, align 8, !tbaa !14
  %192 = icmp ne ptr %191, null
  br i1 %192, label %193, label %215

193:                                              ; preds = %190
  %194 = load ptr, ptr %8, align 8, !tbaa !3
  %195 = load i64, ptr %13, align 8, !tbaa !8
  %196 = load ptr, ptr %15, align 8, !tbaa !14
  %197 = call i32 @H5AC_unprotect(ptr noundef %194, ptr noundef @H5AC_FSPACE_HDR, i64 noundef %195, ptr noundef %196, i32 noundef 0)
  %198 = icmp slt i32 %197, 0
  br i1 %198, label %199, label %215

199:                                              ; preds = %193
  br label %200

200:                                              ; preds = %199
  br label %201

201:                                              ; preds = %200
  br label %202

202:                                              ; preds = %201
  %203 = load i64, ptr @H5E_FSPACE_g, align 8, !tbaa !8
  %204 = load i64, ptr @H5E_PROTECT_g, align 8, !tbaa !8
  %205 = call i32 (ptr, ptr, i32, i64, i64, ptr, ...) @H5E_printf_stack(ptr noundef @.str, ptr noundef @__func__.H5FS_sects_debug, i32 noundef 263, i64 noundef %203, i64 noundef %204, ptr noundef @.str.24)
  br label %206

206:                                              ; preds = %202
  br label %207

207:                                              ; preds = %206
  store i8 1, ptr %19, align 1, !tbaa !16
  %208 = load i8, ptr %19, align 1, !tbaa !16, !range !18, !noundef !19
  %209 = trunc i8 %208 to i1
  %210 = zext i1 %209 to i8
  store i8 %210, ptr %19, align 1, !tbaa !16
  br label %211

211:                                              ; preds = %207
  br label %212

212:                                              ; preds = %211
  store i32 -1, ptr %18, align 4, !tbaa !12
  br label %213

213:                                              ; preds = %212
  br label %214

214:                                              ; preds = %213
  br label %215

215:                                              ; preds = %214, %193, %190
  br label %216

216:                                              ; preds = %215, %42
  %217 = load i32, ptr %18, align 4, !tbaa !12
  call void @llvm.lifetime.end.p0(i64 1, ptr %19) #5
  call void @llvm.lifetime.end.p0(i64 4, ptr %18) #5
  call void @llvm.lifetime.end.p0(i64 40, ptr %17) #5
  call void @llvm.lifetime.end.p0(i64 4, ptr %16) #5
  call void @llvm.lifetime.end.p0(i64 8, ptr %15) #5
  ret i32 %217
}