; Function Attrs: nounwind uwtable
define range(i32 -1, 1) i32 @H5FS_sects_debug(ptr noundef %0, i64 noundef %1, ptr noundef %2, i32 noundef %3, i32 noundef %4, i64 noundef %5, i64 noundef %6) local_unnamed_addr #0 {
  %8 = alloca %struct.H5FS_hdr_cache_ud_t, align 8
  call void @llvm.lifetime.start.p0(i64 40, ptr nonnull %8) #7
  %9 = load i8, ptr @H5FS_init_g, align 1, !tbaa !3, !range !7, !noundef !8
  %10 = trunc nuw i8 %9 to i1
  %11 = load i8, ptr @H5_libterm_g, align 1, !range !7
  %12 = trunc nuw i8 %11 to i1
  %13 = select i1 %10, i1 true, i1 %12
  br i1 %13, label %14, label %.thread, !prof !9

.thread:                                          ; preds = %7
  store i8 1, ptr @H5FS_init_g, align 1, !tbaa !3
  br label %17

14:                                               ; preds = %7
  %15 = xor i1 %12, true
  %16 = select i1 %10, i1 true, i1 %15
  br i1 %16, label %17, label %60, !prof !10

17:                                               ; preds = %.thread, %14
  store ptr %0, ptr %8, align 8, !tbaa !11
  %18 = getelementptr inbounds nuw i8, ptr %8, i64 8
  store i16 0, ptr %18, align 8, !tbaa !18
  %19 = getelementptr inbounds nuw i8, ptr %8, i64 16
  %20 = getelementptr inbounds nuw i8, ptr %8, i64 32
  call void @llvm.memset.p0.i64(ptr noundef nonnull align 8 dereferenceable(16) %19, i8 0, i64 16, i1 false)
  store i64 %5, ptr %20, align 8, !tbaa !19
  %21 = call ptr @H5AC_protect(ptr noundef %0, ptr noundef nonnull @H5AC_FSPACE_HDR, i64 noundef %5, ptr noundef nonnull %8, i32 noundef 128) #7
  %22 = icmp eq ptr %21, null
  br i1 %22, label %23, label %27

23:                                               ; preds = %17
  %24 = load i64, ptr @H5E_FSPACE_g, align 8, !tbaa !20
  %25 = load i64, ptr @H5E_CANTLOAD_g, align 8, !tbaa !20
  %26 = call i32 (ptr, ptr, i32, i64, i64, ptr, ...) @H5E_printf_stack(ptr noundef nonnull @.str, ptr noundef nonnull @__func__.H5FS_sects_debug, i32 noundef 225, i64 noundef %24, i64 noundef %25, ptr noundef nonnull @.str.1) #7
  br label %60

27:                                               ; preds = %17
  %28 = getelementptr inbounds nuw i8, ptr %21, i64 280
  %29 = load i32, ptr %28, align 8, !tbaa !21
  %30 = call i32 @H5AC_unprotect(ptr noundef %0, ptr noundef nonnull @H5AC_FSPACE_HDR, i64 noundef %5, ptr noundef nonnull %21, i32 noundef 1) #7
  %31 = icmp slt i32 %30, 0
  br i1 %31, label %32, label %36

32:                                               ; preds = %27
  %33 = load i64, ptr @H5E_FSPACE_g, align 8, !tbaa !20
  %34 = load i64, ptr @H5E_PROTECT_g, align 8, !tbaa !20
  %35 = call i32 (ptr, ptr, i32, i64, i64, ptr, ...) @H5E_printf_stack(ptr noundef nonnull @.str, ptr noundef nonnull @__func__.H5FS_sects_debug, i32 noundef 235, i64 noundef %33, i64 noundef %34, ptr noundef nonnull @.str.24) #7
  br label %36

36:                                               ; preds = %32, %27
  %.2 = phi i32 [ -1, %32 ], [ 0, %27 ]
  %37 = call i32 (ptr, ptr, ...) @fprintf(ptr noundef %2, ptr noundef nonnull @.str.26, i32 noundef %3, ptr noundef nonnull @.str.3) #7
  switch i32 %29, label %58 [
    i32 0, label %38
    i32 1, label %48
  ]

38:                                               ; preds = %36
  %39 = add nsw i32 %3, 3
  %40 = call i32 @llvm.smax.i32(i32 %4, i32 3)
  %41 = add nsw i32 %40, -3
  %42 = call i32 @H5HF_sects_debug(ptr noundef %0, i64 noundef %6, ptr noundef %2, i32 noundef %39, i32 noundef %41) #7
  %43 = icmp slt i32 %42, 0
  br i1 %43, label %44, label %60

44:                                               ; preds = %38
  %45 = load i64, ptr @H5E_FSPACE_g, align 8, !tbaa !20
  %46 = load i64, ptr @H5E_SYSTEM_g, align 8, !tbaa !20
  %47 = call i32 (ptr, ptr, i32, i64, i64, ptr, ...) @H5E_printf_stack(ptr noundef nonnull @.str, ptr noundef nonnull @__func__.H5FS_sects_debug, i32 noundef 247, i64 noundef %45, i64 noundef %46, ptr noundef nonnull @.str.27) #7
  br label %60

48:                                               ; preds = %36
  %49 = add nsw i32 %3, 3
  %50 = call i32 @llvm.smax.i32(i32 %4, i32 3)
  %51 = add nsw i32 %50, -3
  %52 = call i32 @H5MF_sects_debug(ptr noundef %0, i64 noundef %5, ptr noundef %2, i32 noundef %49, i32 noundef %51) #7
  %53 = icmp slt i32 %52, 0
  br i1 %53, label %54, label %60

54:                                               ; preds = %48
  %55 = load i64, ptr @H5E_FSPACE_g, align 8, !tbaa !20
  %56 = load i64, ptr @H5E_SYSTEM_g, align 8, !tbaa !20
  %57 = call i32 (ptr, ptr, i32, i64, i64, ptr, ...) @H5E_printf_stack(ptr noundef nonnull @.str, ptr noundef nonnull @__func__.H5FS_sects_debug, i32 noundef 252, i64 noundef %55, i64 noundef %56, ptr noundef nonnull @.str.28) #7
  br label %60

58:                                               ; preds = %36
  %59 = call i64 @fwrite(ptr nonnull @.str.29, i64 16, i64 1, ptr %2)
  br label %60

60:                                               ; preds = %23, %44, %54, %48, %38, %58, %14
  %.0 = phi i32 [ 0, %14 ], [ -1, %23 ], [ %.2, %58 ], [ -1, %54 ], [ %.2, %48 ], [ -1, %44 ], [ %.2, %38 ]
  call void @llvm.lifetime.end.p0(i64 40, ptr nonnull %8) #7
  ret i32 %.0
}